target datalayout = "e-m:e-p270:32:32-p271:32:32-p272:64:64-i64:64-i128:128-f80:128-n8:16:32:64-S128"
target triple = "x86_64-pc-linux-gnu"

%struct._zval_struct = type { %union._zend_value, %union.anon.0, %union.anon.3 }
%union._zend_value = type { i64 }
%union.anon.0 = type { i32 }
%union.anon.3 = type { i32 }
%struct._zend_refcounted_h = type { i32, %union.anon }
%union.anon = type { i32 }
%struct._zend_string = type { %struct._zend_refcounted_h, i64, i64, [1 x i8] }
%struct._zend_object = type { %struct._zend_refcounted_h, i32, ptr, ptr, ptr, [1 x %struct._zval_struct] }
%struct._timelib_rel_time = type { i64, i64, i64, i64, i64, i64, i64, i32, i32, i32, i32, i64, %struct.anon.4, i32, i32 }
%struct.anon.4 = type { i32, i64 }
%struct._php_interval_obj = type { ptr, i32, i8, ptr, i8, %struct._zend_object }

@.str.44 = private unnamed_addr constant [2 x i8] c"s\00", align 1
@.str.345 = private unnamed_addr constant [2 x i8] c"y\00", align 1
@.str.346 = private unnamed_addr constant [2 x i8] c"m\00", align 1
@.str.347 = private unnamed_addr constant [2 x i8] c"d\00", align 1
@.str.348 = private unnamed_addr constant [2 x i8] c"h\00", align 1
@.str.349 = private unnamed_addr constant [2 x i8] c"i\00", align 1
@.str.350 = private unnamed_addr constant [2 x i8] c"f\00", align 1
@.str.351 = private unnamed_addr constant [7 x i8] c"invert\00", align 1
@.str.352 = private unnamed_addr constant [5 x i8] c"days\00", align 1
@.str.410 = private unnamed_addr constant [12 x i8] c"date_string\00", align 1
@.str.419 = private unnamed_addr constant [12 x i8] c"from_string\00", align 1

; Function Attrs: nounwind uwtable
define internal void @date_interval_object_to_hash(ptr noundef %0, ptr noundef %1) #0 {
  %3 = alloca ptr, align 8
  %4 = alloca i32, align 4
  %5 = alloca ptr, align 8
  %6 = alloca ptr, align 8
  %7 = alloca %struct._zval_struct, align 8
  %8 = alloca ptr, align 8
  %9 = alloca ptr, align 8
  %10 = alloca ptr, align 8
  %11 = alloca ptr, align 8
  %12 = alloca ptr, align 8
  %13 = alloca ptr, align 8
  %14 = alloca ptr, align 8
  %15 = alloca ptr, align 8
  %16 = alloca ptr, align 8
  %17 = alloca ptr, align 8
  %18 = alloca ptr, align 8
  store ptr %0, ptr %5, align 8
  store ptr %1, ptr %6, align 8
  %19 = load ptr, ptr %5, align 8
  %20 = getelementptr inbounds %struct._php_interval_obj, ptr %19, i32 0, i32 2
  %21 = load i8, ptr %20, align 4
  %22 = trunc i8 %21 to i1
  br i1 %22, label %23, label %64

23:                                               ; preds = %2
  br label %24

24:                                               ; preds = %23
  %25 = load ptr, ptr %5, align 8
  %26 = getelementptr inbounds %struct._php_interval_obj, ptr %25, i32 0, i32 2
  %27 = load i8, ptr %26, align 4
  %28 = trunc i8 %27 to i1
  %29 = select i1 %28, i32 3, i32 2
  %30 = getelementptr inbounds %struct._zval_struct, ptr %7, i32 0, i32 1
  store i32 %29, ptr %30, align 8
  br label %31

31:                                               ; preds = %24
  %32 = load ptr, ptr %6, align 8
  %33 = call ptr @zend_hash_str_update(ptr noundef %32, ptr noundef @.str.419, i64 noundef 11, ptr noundef %7)
  br label %34

34:                                               ; preds = %31
  store ptr %7, ptr %8, align 8
  %35 = load ptr, ptr %5, align 8
  %36 = getelementptr inbounds %struct._php_interval_obj, ptr %35, i32 0, i32 3
  %37 = load ptr, ptr %36, align 8
  store ptr %37, ptr %9, align 8
  %38 = load ptr, ptr %9, align 8
  %39 = load ptr, ptr %8, align 8
  %40 = getelementptr inbounds %struct._zval_struct, ptr %39, i32 0, i32 0
  store ptr %38, ptr %40, align 8
  %41 = load ptr, ptr %9, align 8
  %42 = getelementptr inbounds %struct._zend_string, ptr %41, i32 0, i32 0
  %43 = getelementptr inbounds %struct._zend_refcounted_h, ptr %42, i32 0, i32 1
  %44 = load i32, ptr %43, align 4
  store i32 %44, ptr %4, align 4
  %45 = load i32, ptr %4, align 4
  %46 = and i32 %45, 1008
  %47 = and i32 %46, 64
  %48 = icmp ne i32 %47, 0
  br i1 %48, label %49, label %52

49:                                               ; preds = %34
  %50 = load ptr, ptr %8, align 8
  %51 = getelementptr inbounds %struct._zval_struct, ptr %50, i32 0, i32 1
  store i32 6, ptr %51, align 8
  br label %60

52:                                               ; preds = %34
  %53 = load ptr, ptr %9, align 8
  %54 = getelementptr inbounds %struct._zend_string, ptr %53, i32 0, i32 0
  store ptr %54, ptr %3, align 8
  %55 = load ptr, ptr %3, align 8
  %56 = load i32, ptr %55, align 4
  %57 = add i32 %56, 1
  store i32 %57, ptr %55, align 4
  %58 = load ptr, ptr %8, align 8
  %59 = getelementptr inbounds %struct._zval_struct, ptr %58, i32 0, i32 1
  store i32 262, ptr %59, align 8
  br label %60

60:                                               ; preds = %52, %49
  br label %61

61:                                               ; preds = %60
  %62 = load ptr, ptr %6, align 8
  %63 = call ptr @zend_hash_str_update(ptr noundef %62, ptr noundef @.str.410, i64 noundef 11, ptr noundef %7)
  br label %209

64:                                               ; preds = %2
  br label %65

65:                                               ; preds = %64
  store ptr %7, ptr %10, align 8
  %66 = load ptr, ptr %5, align 8
  %67 = getelementptr inbounds %struct._php_interval_obj, ptr %66, i32 0, i32 0
  %68 = load ptr, ptr %67, align 8
  %69 = getelementptr inbounds %struct._timelib_rel_time, ptr %68, i32 0, i32 0
  %70 = load i64, ptr %69, align 8
  %71 = load ptr, ptr %10, align 8
  %72 = getelementptr inbounds %struct._zval_struct, ptr %71, i32 0, i32 0
  store i64 %70, ptr %72, align 8
  %73 = load ptr, ptr %10, align 8
  %74 = getelementptr inbounds %struct._zval_struct, ptr %73, i32 0, i32 1
  store i32 4, ptr %74, align 8
  br label %75

75:                                               ; preds = %65
  %76 = load ptr, ptr %6, align 8
  %77 = call ptr @zend_hash_str_update(ptr noundef %76, ptr noundef @.str.345, i64 noundef 1, ptr noundef %7)
  br label %78

78:                                               ; preds = %75
  store ptr %7, ptr %11, align 8
  %79 = load ptr, ptr %5, align 8
  %80 = getelementptr inbounds %struct._php_interval_obj, ptr %79, i32 0, i32 0
  %81 = load ptr, ptr %80, align 8
  %82 = getelementptr inbounds %struct._timelib_rel_time, ptr %81, i32 0, i32 1
  %83 = load i64, ptr %82, align 8
  %84 = load ptr, ptr %11, align 8
  %85 = getelementptr inbounds %struct._zval_struct, ptr %84, i32 0, i32 0
  store i64 %83, ptr %85, align 8
  %86 = load ptr, ptr %11, align 8
  %87 = getelementptr inbounds %struct._zval_struct, ptr %86, i32 0, i32 1
  store i32 4, ptr %87, align 8
  br label %88

88:                                               ; preds = %78
  %89 = load ptr, ptr %6, align 8
  %90 = call ptr @zend_hash_str_update(ptr noundef %89, ptr noundef @.str.346, i64 noundef 1, ptr noundef %7)
  br label %91

91:                                               ; preds = %88
  store ptr %7, ptr %12, align 8
  %92 = load ptr, ptr %5, align 8
  %93 = getelementptr inbounds %struct._php_interval_obj, ptr %92, i32 0, i32 0
  %94 = load ptr, ptr %93, align 8
  %95 = getelementptr inbounds %struct._timelib_rel_time, ptr %94, i32 0, i32 2
  %96 = load i64, ptr %95, align 8
  %97 = load ptr, ptr %12, align 8
  %98 = getelementptr inbounds %struct._zval_struct, ptr %97, i32 0, i32 0
  store i64 %96, ptr %98, align 8
  %99 = load ptr, ptr %12, align 8
  %100 = getelementptr inbounds %struct._zval_struct, ptr %99, i32 0, i32 1
  store i32 4, ptr %100, align 8
  br label %101

101:                                              ; preds = %91
  %102 = load ptr, ptr %6, align 8
  %103 = call ptr @zend_hash_str_update(ptr noundef %102, ptr noundef @.str.347, i64 noundef 1, ptr noundef %7)
  br label %104

104:                                              ; preds = %101
  store ptr %7, ptr %13, align 8
  %105 = load ptr, ptr %5, align 8
  %106 = getelementptr inbounds %struct._php_interval_obj, ptr %105, i32 0, i32 0
  %107 = load ptr, ptr %106, align 8
  %108 = getelementptr inbounds %struct._timelib_rel_time, ptr %107, i32 0, i32 3
  %109 = load i64, ptr %108, align 8
  %110 = load ptr, ptr %13, align 8
  %111 = getelementptr inbounds %struct._zval_struct, ptr %110, i32 0, i32 0
  store i64 %109, ptr %111, align 8
  %112 = load ptr, ptr %13, align 8
  %113 = getelementptr inbounds %struct._zval_struct, ptr %112, i32 0, i32 1
  store i32 4, ptr %113, align 8
  br label %114

114:                                              ; preds = %104
  %115 = load ptr, ptr %6, align 8
  %116 = call ptr @zend_hash_str_update(ptr noundef %115, ptr noundef @.str.348, i64 noundef 1, ptr noundef %7)
  br label %117

117:                                              ; preds = %114
  store ptr %7, ptr %14, align 8
  %118 = load ptr, ptr %5, align 8
  %119 = getelementptr inbounds %struct._php_interval_obj, ptr %118, i32 0, i32 0
  %120 = load ptr, ptr %119, align 8
  %121 = getelementptr inbounds %struct._timelib_rel_time, ptr %120, i32 0, i32 4
  %122 = load i64, ptr %121, align 8
  %123 = load ptr, ptr %14, align 8
  %124 = getelementptr inbounds %struct._zval_struct, ptr %123, i32 0, i32 0
  store i64 %122, ptr %124, align 8
  %125 = load ptr, ptr %14, align 8
  %126 = getelementptr inbounds %struct._zval_struct, ptr %125, i32 0, i32 1
  store i32 4, ptr %126, align 8
  br label %127

127:                                              ; preds = %117
  %128 = load ptr, ptr %6, align 8
  %129 = call ptr @zend_hash_str_update(ptr noundef %128, ptr noundef @.str.349, i64 noundef 1, ptr noundef %7)
  br label %130

130:                                              ; preds = %127
  store ptr %7, ptr %15, align 8
  %131 = load ptr, ptr %5, align 8
  %132 = getelementptr inbounds %struct._php_interval_obj, ptr %131, i32 0, i32 0
  %133 = load ptr, ptr %132, align 8
  %134 = getelementptr inbounds %struct._timelib_rel_time, ptr %133, i32 0, i32 5
  %135 = load i64, ptr %134, align 8
  %136 = load ptr, ptr %15, align 8
  %137 = getelementptr inbounds %struct._zval_struct, ptr %136, i32 0, i32 0
  store i64 %135, ptr %137, align 8
  %138 = load ptr, ptr %15, align 8
  %139 = getelementptr inbounds %struct._zval_struct, ptr %138, i32 0, i32 1
  store i32 4, ptr %139, align 8
  br label %140

140:                                              ; preds = %130
  %141 = load ptr, ptr %6, align 8
  %142 = call ptr @zend_hash_str_update(ptr noundef %141, ptr noundef @.str.44, i64 noundef 1, ptr noundef %7)
  br label %143

143:                                              ; preds = %140
  store ptr %7, ptr %16, align 8
  %144 = load ptr, ptr %5, align 8
  %145 = getelementptr inbounds %struct._php_interval_obj, ptr %144, i32 0, i32 0
  %146 = load ptr, ptr %145, align 8
  %147 = getelementptr inbounds %struct._timelib_rel_time, ptr %146, i32 0, i32 6
  %148 = load i64, ptr %147, align 8
  %149 = sitofp i64 %148 to double
  %150 = fdiv double %149, 1.000000e+06
  %151 = load ptr, ptr %16, align 8
  %152 = getelementptr inbounds %struct._zval_struct, ptr %151, i32 0, i32 0
  store double %150, ptr %152, align 8
  %153 = load ptr, ptr %16, align 8
  %154 = getelementptr inbounds %struct._zval_struct, ptr %153, i32 0, i32 1
  store i32 5, ptr %154, align 8
  br label %155

155:                                              ; preds = %143
  %156 = load ptr, ptr %6, align 8
  %157 = call ptr @zend_hash_str_update(ptr noundef %156, ptr noundef @.str.350, i64 noundef 1, ptr noundef %7)
  br label %158

158:                                              ; preds = %155
  store ptr %7, ptr %17, align 8
  %159 = load ptr, ptr %5, align 8
  %160 = getelementptr inbounds %struct._php_interval_obj, ptr %159, i32 0, i32 0
  %161 = load ptr, ptr %160, align 8
  %162 = getelementptr inbounds %struct._timelib_rel_time, ptr %161, i32 0, i32 10
  %163 = load i32, ptr %162, align 4
  %164 = sext i32 %163 to i64
  %165 = load ptr, ptr %17, align 8
  %166 = getelementptr inbounds %struct._zval_struct, ptr %165, i32 0, i32 0
  store i64 %164, ptr %166, align 8
  %167 = load ptr, ptr %17, align 8
  %168 = getelementptr inbounds %struct._zval_struct, ptr %167, i32 0, i32 1
  store i32 4, ptr %168, align 8
  br label %169

169:                                              ; preds = %158
  %170 = load ptr, ptr %6, align 8
  %171 = call ptr @zend_hash_str_update(ptr noundef %170, ptr noundef @.str.351, i64 noundef 6, ptr noundef %7)
  %172 = load ptr, ptr %5, align 8
  %173 = getelementptr inbounds %struct._php_interval_obj, ptr %172, i32 0, i32 0
  %174 = load ptr, ptr %173, align 8
  %175 = getelementptr inbounds %struct._timelib_rel_time, ptr %174, i32 0, i32 11
  %176 = load i64, ptr %175, align 8
  %177 = icmp ne i64 %176, -9999999
  br i1 %177, label %178, label %192

178:                                              ; preds = %169
  br label %179

179:                                              ; preds = %178
  store ptr %7, ptr %18, align 8
  %180 = load ptr, ptr %5, align 8
  %181 = getelementptr inbounds %struct._php_interval_obj, ptr %180, i32 0, i32 0
  %182 = load ptr, ptr %181, align 8
  %183 = getelementptr inbounds %struct._timelib_rel_time, ptr %182, i32 0, i32 11
  %184 = load i64, ptr %183, align 8
  %185 = load ptr, ptr %18, align 8
  %186 = getelementptr inbounds %struct._zval_struct, ptr %185, i32 0, i32 0
  store i64 %184, ptr %186, align 8
  %187 = load ptr, ptr %18, align 8
  %188 = getelementptr inbounds %struct._zval_struct, ptr %187, i32 0, i32 1
  store i32 4, ptr %188, align 8
  br label %189

189:                                              ; preds = %179
  %190 = load ptr, ptr %6, align 8
  %191 = call ptr @zend_hash_str_update(ptr noundef %190, ptr noundef @.str.352, i64 noundef 4, ptr noundef %7)
  br label %198

192:                                              ; preds = %169
  br label %193

193:                                              ; preds = %192
  %194 = getelementptr inbounds %struct._zval_struct, ptr %7, i32 0, i32 1
  store i32 2, ptr %194, align 8
  br label %195

195:                                              ; preds = %193
  %196 = load ptr, ptr %6, align 8
  %197 = call ptr @zend_hash_str_update(ptr noundef %196, ptr noundef @.str.352, i64 noundef 4, ptr noundef %7)
  br label %198

198:                                              ; preds = %195, %189
  br label %199

199:                                              ; preds = %198
  %200 = load ptr, ptr %5, align 8
  %201 = getelementptr inbounds %struct._php_interval_obj, ptr %200, i32 0, i32 2
  %202 = load i8, ptr %201, align 4
  %203 = trunc i8 %202 to i1
  %204 = select i1 %203, i32 3, i32 2
  %205 = getelementptr inbounds %struct._zval_struct, ptr %7, i32 0, i32 1
  store i32 %204, ptr %205, align 8
  br label %206

206:                                              ; preds = %199
  %207 = load ptr, ptr %6, align 8
  %208 = call ptr @zend_hash_str_update(ptr noundef %207, ptr noundef @.str.419, i64 noundef 11, ptr noundef %7)
  br label %209

209:                                              ; preds = %206, %61
  ret void
}