; Function Attrs: nounwind uwtable
define internal fastcc void @date_interval_object_to_hash(ptr nocapture noundef readonly %0, ptr noundef %1) unnamed_addr #0 {
  %3 = alloca %struct._zval_struct, align 8
  %4 = getelementptr inbounds i8, ptr %0, i64 12
  %5 = load i8, ptr %4, align 4
  %6 = and i8 %5, 1
  %.not = icmp eq i8 %6, 0
  br i1 %.not, label %19, label %7

7:                                                ; preds = %2
  %8 = getelementptr inbounds i8, ptr %3, i64 8
  store i32 3, ptr %8, align 8
  %9 = call ptr @zend_hash_str_update(ptr noundef %1, ptr noundef nonnull @.str.419, i64 noundef 11, ptr noundef nonnull %3) #25
  %10 = getelementptr inbounds i8, ptr %0, i64 16
  %11 = load ptr, ptr %10, align 8
  store ptr %11, ptr %3, align 8
  %12 = getelementptr inbounds i8, ptr %11, i64 4
  %13 = load i32, ptr %12, align 4
  %14 = and i32 %13, 64
  %.not54 = icmp eq i32 %14, 0
  br i1 %.not54, label %15, label %18

15:                                               ; preds = %7
  %16 = load i32, ptr %11, align 4
  %17 = add i32 %16, 1
  store i32 %17, ptr %11, align 4
  br label %18

18:                                               ; preds = %7, %15
  %storemerge = phi i32 [ 262, %15 ], [ 6, %7 ]
  store i32 %storemerge, ptr %8, align 8
  br label %64

19:                                               ; preds = %2
  %20 = load ptr, ptr %0, align 8
  %21 = load i64, ptr %20, align 8
  store i64 %21, ptr %3, align 8
  %22 = getelementptr inbounds i8, ptr %3, i64 8
  store i32 4, ptr %22, align 8
  %23 = call ptr @zend_hash_str_update(ptr noundef %1, ptr noundef nonnull @.str.345, i64 noundef 1, ptr noundef nonnull %3) #25
  %24 = load ptr, ptr %0, align 8
  %25 = getelementptr inbounds i8, ptr %24, i64 8
  %26 = load i64, ptr %25, align 8
  store i64 %26, ptr %3, align 8
  store i32 4, ptr %22, align 8
  %27 = call ptr @zend_hash_str_update(ptr noundef %1, ptr noundef nonnull @.str.346, i64 noundef 1, ptr noundef nonnull %3) #25
  %28 = load ptr, ptr %0, align 8
  %29 = getelementptr inbounds i8, ptr %28, i64 16
  %30 = load i64, ptr %29, align 8
  store i64 %30, ptr %3, align 8
  store i32 4, ptr %22, align 8
  %31 = call ptr @zend_hash_str_update(ptr noundef %1, ptr noundef nonnull @.str.347, i64 noundef 1, ptr noundef nonnull %3) #25
  %32 = load ptr, ptr %0, align 8
  %33 = getelementptr inbounds i8, ptr %32, i64 24
  %34 = load i64, ptr %33, align 8
  store i64 %34, ptr %3, align 8
  store i32 4, ptr %22, align 8
  %35 = call ptr @zend_hash_str_update(ptr noundef %1, ptr noundef nonnull @.str.348, i64 noundef 1, ptr noundef nonnull %3) #25
  %36 = load ptr, ptr %0, align 8
  %37 = getelementptr inbounds i8, ptr %36, i64 32
  %38 = load i64, ptr %37, align 8
  store i64 %38, ptr %3, align 8
  store i32 4, ptr %22, align 8
  %39 = call ptr @zend_hash_str_update(ptr noundef %1, ptr noundef nonnull @.str.349, i64 noundef 1, ptr noundef nonnull %3) #25
  %40 = load ptr, ptr %0, align 8
  %41 = getelementptr inbounds i8, ptr %40, i64 40
  %42 = load i64, ptr %41, align 8
  store i64 %42, ptr %3, align 8
  store i32 4, ptr %22, align 8
  %43 = call ptr @zend_hash_str_update(ptr noundef %1, ptr noundef nonnull @.str.44, i64 noundef 1, ptr noundef nonnull %3) #25
  %44 = load ptr, ptr %0, align 8
  %45 = getelementptr inbounds i8, ptr %44, i64 48
  %46 = load i64, ptr %45, align 8
  %47 = sitofp i64 %46 to double
  %48 = fdiv double %47, 1.000000e+06
  store double %48, ptr %3, align 8
  store i32 5, ptr %22, align 8
  %49 = call ptr @zend_hash_str_update(ptr noundef %1, ptr noundef nonnull @.str.350, i64 noundef 1, ptr noundef nonnull %3) #25
  %50 = load ptr, ptr %0, align 8
  %51 = getelementptr inbounds i8, ptr %50, i64 68
  %52 = load i32, ptr %51, align 4
  %53 = sext i32 %52 to i64
  store i64 %53, ptr %3, align 8
  store i32 4, ptr %22, align 8
  %54 = call ptr @zend_hash_str_update(ptr noundef %1, ptr noundef nonnull @.str.351, i64 noundef 6, ptr noundef nonnull %3) #25
  %55 = load ptr, ptr %0, align 8
  %56 = getelementptr inbounds i8, ptr %55, i64 72
  %57 = load i64, ptr %56, align 8
  %.not52 = icmp eq i64 %57, -9999999
  br i1 %.not52, label %59, label %58

58:                                               ; preds = %19
  store i64 %57, ptr %3, align 8
  br label %59

59:                                               ; preds = %19, %58
  %.sink = phi i32 [ 4, %58 ], [ 2, %19 ]
  store i32 %.sink, ptr %22, align 8
  %60 = call ptr @zend_hash_str_update(ptr noundef %1, ptr noundef nonnull @.str.352, i64 noundef 4, ptr noundef nonnull %3) #25
  %61 = load i8, ptr %4, align 4
  %62 = and i8 %61, 1
  %.not53 = icmp eq i8 %62, 0
  %63 = select i1 %.not53, i32 2, i32 3
  store i32 %63, ptr %22, align 8
  br label %64

64:                                               ; preds = %59, %18
  %.str.419.sink = phi ptr [ @.str.419, %59 ], [ @.str.410, %18 ]
  %65 = call ptr @zend_hash_str_update(ptr noundef %1, ptr noundef nonnull %.str.419.sink, i64 noundef 11, ptr noundef nonnull %3) #25
  ret void
}